target datalayout = "e-m:e-p270:32:32-p271:32:32-p272:64:64-i64:64-i128:128-f80:128-n8:16:32:64-S128"
target triple = "x86_64-pc-linux-gnu"

%struct.Vec_Int_t_ = type { i32, i32, ptr }
%struct.Vec_Wec_t_ = type { i32, i32, ptr }

; Function Attrs: inlinehint nounwind uwtable
define internal i32 @Vec_IntEntry(ptr noundef %0, i32 noundef %1) #1 {
  %3 = alloca ptr, align 8
  %4 = alloca i32, align 4
  store ptr %0, ptr %3, align 8, !tbaa !39
  store i32 %1, ptr %4, align 4, !tbaa !3
  %5 = load ptr, ptr %3, align 8, !tbaa !39
  %6 = getelementptr inbounds nuw %struct.Vec_Int_t_, ptr %5, i32 0, i32 2
  %7 = load ptr, ptr %6, align 8, !tbaa !45
  %8 = load i32, ptr %4, align 4, !tbaa !3
  %9 = sext i32 %8 to i64
  %10 = getelementptr inbounds i32, ptr %7, i64 %9
  %11 = load i32, ptr %10, align 4, !tbaa !3
  ret i32 %11
}

; Function Attrs: inlinehint nounwind uwtable
define internal ptr @Vec_WecEntry(ptr noundef %0, i32 noundef %1) #1 {
  %3 = alloca ptr, align 8
  %4 = alloca i32, align 4
  store ptr %0, ptr %3, align 8, !tbaa !47
  store i32 %1, ptr %4, align 4, !tbaa !3
  %5 = load ptr, ptr %3, align 8, !tbaa !47
  %6 = getelementptr inbounds nuw %struct.Vec_Wec_t_, ptr %5, i32 0, i32 2
  %7 = load ptr, ptr %6, align 8, !tbaa !53
  %8 = load i32, ptr %4, align 4, !tbaa !3
  %9 = sext i32 %8 to i64
  %10 = getelementptr inbounds %struct.Vec_Int_t_, ptr %7, i64 %9
  ret ptr %10
}

; Function Attrs: nounwind uwtable
define double @Abc_GraphCountPaths_rec(i32 noundef %0, i32 noundef %1, ptr noundef %2, ptr noundef %3, ptr noundef %4, ptr noundef %5) #0 {
  %7 = alloca double, align 8
  %8 = alloca i32, align 4
  %9 = alloca i32, align 4
  %10 = alloca ptr, align 8
  %11 = alloca ptr, align 8
  %12 = alloca ptr, align 8
  %13 = alloca ptr, align 8
  %14 = alloca double, align 8
  %15 = alloca double, align 8
  %16 = alloca i32, align 4
  store i32 %0, ptr %8, align 4, !tbaa !3
  store i32 %1, ptr %9, align 4, !tbaa !3
  store ptr %2, ptr %10, align 8, !tbaa !47
  store ptr %3, ptr %11, align 8, !tbaa !72
  store ptr %4, ptr %12, align 8, !tbaa !10
  store ptr %5, ptr %13, align 8, !tbaa !39
  call void @llvm.lifetime.start.p0(i64 8, ptr %14) #12
  call void @llvm.lifetime.start.p0(i64 8, ptr %15) #12
  %17 = load i32, ptr %9, align 4, !tbaa !3
  %18 = icmp eq i32 %17, -2
  br i1 %18, label %19, label %20

19:                                               ; preds = %6
  store double 1.000000e+00, ptr %7, align 8
  store i32 1, ptr %16, align 4
  br label %92

20:                                               ; preds = %6
  %21 = load i32, ptr %9, align 4, !tbaa !3
  %22 = icmp eq i32 %21, -1
  br i1 %22, label %23, label %24

23:                                               ; preds = %20
  store double 0.000000e+00, ptr %7, align 8
  store i32 1, ptr %16, align 4
  br label %92

24:                                               ; preds = %20
  %25 = load ptr, ptr %11, align 8, !tbaa !72
  %26 = load i32, ptr %8, align 4, !tbaa !3
  %27 = sext i32 %26 to i64
  %28 = getelementptr inbounds ptr, ptr %25, i64 %27
  %29 = load ptr, ptr %28, align 8, !tbaa !74
  %30 = load i32, ptr %9, align 4, !tbaa !3
  %31 = sext i32 %30 to i64
  %32 = getelementptr inbounds double, ptr %29, i64 %31
  %33 = load double, ptr %32, align 8, !tbaa !76
  %34 = fcmp une double %33, -1.000000e+00
  br i1 %34, label %35, label %45

35:                                               ; preds = %24
  %36 = load ptr, ptr %11, align 8, !tbaa !72
  %37 = load i32, ptr %8, align 4, !tbaa !3
  %38 = sext i32 %37 to i64
  %39 = getelementptr inbounds ptr, ptr %36, i64 %38
  %40 = load ptr, ptr %39, align 8, !tbaa !74
  %41 = load i32, ptr %9, align 4, !tbaa !3
  %42 = sext i32 %41 to i64
  %43 = getelementptr inbounds double, ptr %40, i64 %42
  %44 = load double, ptr %43, align 8, !tbaa !76
  store double %44, ptr %7, align 8
  store i32 1, ptr %16, align 4
  br label %92

45:                                               ; preds = %24
  %46 = load ptr, ptr %12, align 8, !tbaa !10
  %47 = load i32, ptr %8, align 4, !tbaa !3
  %48 = sext i32 %47 to i64
  %49 = getelementptr inbounds i32, ptr %46, i64 %48
  store i32 0, ptr %49, align 4, !tbaa !3
  %50 = load i32, ptr %8, align 4, !tbaa !3
  %51 = add nsw i32 %50, 1
  %52 = load ptr, ptr %10, align 8, !tbaa !47
  %53 = load i32, ptr %8, align 4, !tbaa !3
  %54 = call ptr @Vec_WecEntry(ptr noundef %52, i32 noundef %53)
  %55 = load i32, ptr %9, align 4, !tbaa !3
  %56 = mul nsw i32 2, %55
  %57 = call i32 @Vec_IntEntry(ptr noundef %54, i32 noundef %56)
  %58 = load ptr, ptr %10, align 8, !tbaa !47
  %59 = load ptr, ptr %11, align 8, !tbaa !72
  %60 = load ptr, ptr %12, align 8, !tbaa !10
  %61 = load ptr, ptr %13, align 8, !tbaa !39
  %62 = call double @Abc_GraphCountPaths_rec(i32 noundef %51, i32 noundef %57, ptr noundef %58, ptr noundef %59, ptr noundef %60, ptr noundef %61)
  store double %62, ptr %14, align 8, !tbaa !76
  %63 = load ptr, ptr %12, align 8, !tbaa !10
  %64 = load i32, ptr %8, align 4, !tbaa !3
  %65 = sext i32 %64 to i64
  %66 = getelementptr inbounds i32, ptr %63, i64 %65
  store i32 1, ptr %66, align 4, !tbaa !3
  %67 = load i32, ptr %8, align 4, !tbaa !3
  %68 = add nsw i32 %67, 1
  %69 = load ptr, ptr %10, align 8, !tbaa !47
  %70 = load i32, ptr %8, align 4, !tbaa !3
  %71 = call ptr @Vec_WecEntry(ptr noundef %69, i32 noundef %70)
  %72 = load i32, ptr %9, align 4, !tbaa !3
  %73 = mul nsw i32 2, %72
  %74 = add nsw i32 %73, 1
  %75 = call i32 @Vec_IntEntry(ptr noundef %71, i32 noundef %74)
  %76 = load ptr, ptr %10, align 8, !tbaa !47
  %77 = load ptr, ptr %11, align 8, !tbaa !72
  %78 = load ptr, ptr %12, align 8, !tbaa !10
  %79 = load ptr, ptr %13, align 8, !tbaa !39
  %80 = call double @Abc_GraphCountPaths_rec(i32 noundef %68, i32 noundef %75, ptr noundef %76, ptr noundef %77, ptr noundef %78, ptr noundef %79)
  store double %80, ptr %15, align 8, !tbaa !76
  %81 = load double, ptr %14, align 8, !tbaa !76
  %82 = load double, ptr %15, align 8, !tbaa !76
  %83 = fadd double %81, %82
  %84 = load ptr, ptr %11, align 8, !tbaa !72
  %85 = load i32, ptr %8, align 4, !tbaa !3
  %86 = sext i32 %85 to i64
  %87 = getelementptr inbounds ptr, ptr %84, i64 %86
  %88 = load ptr, ptr %87, align 8, !tbaa !74
  %89 = load i32, ptr %9, align 4, !tbaa !3
  %90 = sext i32 %89 to i64
  %91 = getelementptr inbounds double, ptr %88, i64 %90
  store double %83, ptr %91, align 8, !tbaa !76
  store double %83, ptr %7, align 8
  store i32 1, ptr %16, align 4
  br label %92

92:                                               ; preds = %45, %35, %23, %19
  call void @llvm.lifetime.end.p0(i64 8, ptr %15) #12
  call void @llvm.lifetime.end.p0(i64 8, ptr %14) #12
  %93 = load double, ptr %7, align 8
  ret double %93
}