; Function Attrs: nofree nosync nounwind memory(readwrite, inaccessiblemem: none) uwtable
define double @Abc_GraphCountPaths_rec(i32 noundef %0, i32 noundef %1, ptr noundef %2, ptr noundef %3, ptr noundef %4, ptr noundef %5) local_unnamed_addr #9 {
  switch i32 %1, label %8 [
    i32 -2, label %common.ret38
    i32 -1, label %7
  ]

7:                                                ; preds = %6
  br label %common.ret38

8:                                                ; preds = %6
  %9 = sext i32 %0 to i64
  %10 = getelementptr inbounds ptr, ptr %3, i64 %9
  %11 = load ptr, ptr %10, align 8, !tbaa !65
  %12 = sext i32 %1 to i64
  %13 = getelementptr inbounds double, ptr %11, i64 %12
  %14 = load double, ptr %13, align 8, !tbaa !67
  %15 = fcmp une double %14, -1.000000e+00
  br i1 %15, label %common.ret38, label %16

common.ret38:                                     ; preds = %8, %6, %7, %16
  %common.ret38.op = phi double [ %32, %16 ], [ 0.000000e+00, %7 ], [ 1.000000e+00, %6 ], [ %14, %8 ]
  ret double %common.ret38.op

16:                                               ; preds = %8
  %17 = getelementptr inbounds i32, ptr %4, i64 %9
  store i32 0, ptr %17, align 4, !tbaa !5
  %18 = add nsw i32 %0, 1
  %19 = getelementptr i8, ptr %2, i64 8
  %.val36 = load ptr, ptr %19, align 8, !tbaa !46
  %20 = shl nsw i32 %1, 1
  %21 = getelementptr %struct.Vec_Int_t_, ptr %.val36, i64 %9, i32 2
  %.val35 = load ptr, ptr %21, align 8, !tbaa !37
  %22 = sext i32 %20 to i64
  %23 = getelementptr inbounds i32, ptr %.val35, i64 %22
  %24 = load i32, ptr %23, align 4, !tbaa !5
  %25 = tail call double @Abc_GraphCountPaths_rec(i32 noundef %18, i32 noundef %24, ptr noundef %2, ptr noundef nonnull %3, ptr noundef %4, ptr noundef %5)
  store i32 1, ptr %17, align 4, !tbaa !5
  %.val37 = load ptr, ptr %19, align 8, !tbaa !46
  %26 = or disjoint i32 %20, 1
  %27 = getelementptr %struct.Vec_Int_t_, ptr %.val37, i64 %9, i32 2
  %.val = load ptr, ptr %27, align 8, !tbaa !37
  %28 = sext i32 %26 to i64
  %29 = getelementptr inbounds i32, ptr %.val, i64 %28
  %30 = load i32, ptr %29, align 4, !tbaa !5
  %31 = tail call double @Abc_GraphCountPaths_rec(i32 noundef %18, i32 noundef %30, ptr noundef %2, ptr noundef nonnull %3, ptr noundef %4, ptr noundef %5)
  %32 = fadd double %25, %31
  %33 = load ptr, ptr %10, align 8, !tbaa !65
  %34 = getelementptr inbounds double, ptr %33, i64 %12
  store double %32, ptr %34, align 8, !tbaa !67
  br label %common.ret38
}